; Function Attrs: mustprogress nounwind uwtable
define internal void @_ZN11opencv_test12_GLOBAL__N_124Perf_TSDF_integrate_TestD2Ev(ptr noundef nonnull align 8 dereferenceable(249) %0) unnamed_addr #3 align 2 personality ptr @__gxx_personality_v0 {
  store ptr getelementptr inbounds inrange(-16, 56) (i8, ptr @_ZTVN4perf8TestBaseE, i64 16), ptr %0, align 8
  %2 = getelementptr inbounds i8, ptr %0, i64 72
  %3 = load ptr, ptr %2, align 8
  %.not.i.i.i.i = icmp eq ptr %3, null
  br i1 %.not.i.i.i.i, label %_ZNSt6vectorIlSaIlEED2Ev.exit.i, label %4

4:                                                ; preds = %1
  tail call void @_ZdlPv(ptr noundef nonnull %3) #25
  br label %_ZNSt6vectorIlSaIlEED2Ev.exit.i

_ZNSt6vectorIlSaIlEED2Ev.exit.i:                  ; preds = %4, %1
  %5 = getelementptr inbounds i8, ptr %0, i64 40
  %6 = load ptr, ptr %5, align 8
  %.not.i.i.i1.i = icmp eq ptr %6, null
  br i1 %.not.i.i.i1.i, label %_ZNSt6vectorISt4pairIiN2cv5Size_IiEEESaIS4_EED2Ev.exit.i, label %7

7:                                                ; preds = %_ZNSt6vectorIlSaIlEED2Ev.exit.i
  tail call void @_ZdlPv(ptr noundef nonnull %6) #25
  br label %_ZNSt6vectorISt4pairIiN2cv5Size_IiEEESaIS4_EED2Ev.exit.i

_ZNSt6vectorISt4pairIiN2cv5Size_IiEEESaIS4_EED2Ev.exit.i: ; preds = %7, %_ZNSt6vectorIlSaIlEED2Ev.exit.i
  %8 = getelementptr inbounds i8, ptr %0, i64 16
  %9 = load ptr, ptr %8, align 8
  %.not.i.i.i2.i = icmp eq ptr %9, null
  br i1 %.not.i.i.i2.i, label %_ZN4perf8TestBaseD2Ev.exit, label %10

10:                                               ; preds = %_ZNSt6vectorISt4pairIiN2cv5Size_IiEEESaIS4_EED2Ev.exit.i
  tail call void @_ZdlPv(ptr noundef nonnull %9) #25
  br label %_ZN4perf8TestBaseD2Ev.exit

_ZN4perf8TestBaseD2Ev.exit:                       ; preds = %_ZNSt6vectorISt4pairIiN2cv5Size_IiEEESaIS4_EED2Ev.exit.i, %10
  tail call void @_ZN7testing4TestD2Ev(ptr noundef nonnull align 8 dereferenceable(16) %0) #27
  ret void
}